(dp0
VHeavy Machining
p1
(dp2
Vheavy machining 
p3
F5.0
sVHeavy CNC machining 
p4
F5.0
sVlarge parts
p5
F1.0
sVlarge part CNC machining 
p6
F5.0
sVLarge component
p7
F5.0
sVLarge Stainless Steel Component Machining
p8
F5.0
sVGantry Mill
p9
F5.0
sVHeavy Lifting Equipment 
p10
F5.0
sVwide working envelope
p11
F1.0
sVHeavy Part
p12
F5.0
sVlarge part machining 
p13
F5.0
sVlarge machining 
p14
F5.0
sVLarge machined part
p15
F5.0
sVLarge CNC turning 
p16
F3.0
sVVertical Boring 
p17
F5.0
sVlarge metal parts
p18
F1.0
sVheavy and large component 
p19
F1.0
sVHeavy Capacity Machining
p20
F5.0
sVlarge envelope 
p21
F1.0
sVCNC precision 
p22
F1.0
sVheavy component
p23
F1.0
sVlarge work envelope 
p24
F1.0
sVHeavy payload
p25
F5.0
sVLarge and complex part
p26
F5.0
sVHeavy Duty Machining
p27
F1.0
sVLarge CNC Vertical Machining 
p28
F3.0
sVLarge and heavy machining 
p29
F5.0
sVPrecision Machining
p30
F1.0
sVlarge part
p31
F1.0
sVLarge working envelope
p32
F5.0
sVLarge Precision Machining 
p33
F3.0
sVLarge Aluminum Component Machining
p34
F5.0
sVVMC
p35
F5.0
sVLarge CNC machining 
p36
F9.0
sVHeavy Machining
p37
F9.0
sVGantry Machining Center
p38
F5.0
sVvertical machining center
p39
F9.0
sVLarge CNC boring
p40
F3.0
ssVComplex Machining
p41
(dp42
Vcomplex component
p43
F1.0
sVcomplex machined parts
p44
F5.0
sV5 axis machining 
p45
F1.0
sV5-Axis Machining 
p46
F5.0
sV5-Axis machining capability 
p47
F1.0
sVcomplex precision component
p48
F1.0
sV7-Axis Machining
p49
F5.0
sVComplex Geometries
p50
F1.0
sVdifficult to fabricate component
p51
F5.0
sVsub-spindle
p52
F5.0
sVfive-sided milling
p53
F5.0
sVmulti-axis CNC machining center
p54
F5.0
sVFive Axis Machining
p55
F1.0
sVDual-spindle Lathe
p56
F1.0
sVlive-tooling
p57
F1.0
sVcomplex metal shapes
p58
F5.0
sVmultiaxis machining 
p59
F1.0
sVcomplex part
p60
F1.0
sVComplex turning and milling
p61
F3.0
sVDifficult machining 
p62
F9.0
sVMulti-axis Complex Machining 
p63
F3.0
sVcomplex dimensional shapes
p64
F5.0
sVComplex CNC Machining 
p65
F5.0
sV5 sided milling
p66
F1.0
sVComplex Machining 
p67
F9.0
sV5-Axis Simultaneous Machining
p68
F1.0
sVcomplex precision part
p69
F1.0
sVsubspindle
p70
F1.0
sVcomplex precision parts
p71
F5.0
sVcomplex drilling problems
p72
F5.0
sVdual spindle lathe
p73
F1.0
sVmulti-axis capabilities
p74
F9.0
sVTwin Spindle Lathe
p75
F1.0
sVsimultaneous 5-axis machining 
p76
F1.0
sVmulti-axis capability
p77
F5.0
sVMulti-Axis Machining 
p78
F1.0
sVcomplex metal shape
p79
F1.0
sVcomplex precision turned metal component
p80
F5.0
sVintricate and complex shape
p81
F5.0
sVLive Tooling
p82
F5.0
sVhighly complex precision machining
p83
F3.0
sVParts with complex geometries
p84
F5.0
sVcomplex machined components
p85
F1.0
sVFive-axis machining 
p86
F1.0
sVComplex Parts
p87
F1.0
ss.